; Function Attrs: mustprogress uwtable
define noundef i32 @_ZNK9RBDataMap6getIntEPKcR10UErrorCode(ptr noundef nonnull align 8 dereferenceable(16) %this, ptr noundef %key, ptr noundef nonnull align 4 dereferenceable(4) %status) unnamed_addr #4 align 2 personality ptr @__gxx_personality_v0 {
entry:
  %ch.i = alloca [256 x i8], align 16
  %r = alloca %"class.icu_75::UnicodeString", align 8
  %vtable = load ptr, ptr %this, align 8
  %vfn = getelementptr inbounds i8, ptr %vtable, i64 16
  %0 = load ptr, ptr %vfn, align 8
  call void %0(ptr nonnull sret(%"class.icu_75::UnicodeString") align 8 %r, ptr noundef nonnull align 8 dereferenceable(16) %this, ptr noundef %key, ptr noundef nonnull align 4 dereferenceable(4) %status)
  %1 = load i32, ptr %status, align 4
  %cmp.i = icmp sgt i32 %1, 0
  br i1 %cmp.i, label %cleanup, label %if.then

if.then:                                          ; preds = %entry
  call void @llvm.lifetime.start.p0(i64 256, ptr nonnull %ch.i)
  %fUnion.i.i = getelementptr inbounds i8, ptr %r, i64 8
  %2 = load i16, ptr %fUnion.i.i, align 8
  %conv1.i.i = zext i16 %2 to i32
  %and.i.i = and i32 %conv1.i.i, 17
  %tobool.not.i.i = icmp eq i32 %and.i.i, 0
  br i1 %tobool.not.i.i, label %if.else.i.i, label %_ZNK6icu_7513UnicodeString9getBufferEv.exit.i

if.else.i.i:                                      ; preds = %if.then
  %and5.i.i = and i32 %conv1.i.i, 2
  %tobool6.not.i.i = icmp eq i32 %and5.i.i, 0
  br i1 %tobool6.not.i.i, label %if.else9.i.i, label %if.then7.i.i

if.then7.i.i:                                     ; preds = %if.else.i.i
  %fBuffer.i.i = getelementptr inbounds i8, ptr %r, i64 10
  br label %_ZNK6icu_7513UnicodeString9getBufferEv.exit.i

if.else9.i.i:                                     ; preds = %if.else.i.i
  %fArray.i.i = getelementptr inbounds i8, ptr %r, i64 24
  %3 = load ptr, ptr %fArray.i.i, align 8
  br label %_ZNK6icu_7513UnicodeString9getBufferEv.exit.i

_ZNK6icu_7513UnicodeString9getBufferEv.exit.i:    ; preds = %if.else9.i.i, %if.then7.i.i, %if.then
  %retval.0.i.i = phi ptr [ %fBuffer.i.i, %if.then7.i.i ], [ %3, %if.else9.i.i ], [ null, %if.then ]
  call void asm sideeffect "", "rm,~{memory},~{dirflag},~{fpsr},~{flags}"(ptr %retval.0.i.i) #15, !srcloc !4
  %4 = load i16, ptr %fUnion.i.i, align 8
  %cmp.i.i.i = icmp slt i16 %4, 0
  %5 = ashr i16 %4, 5
  %shr.i.i.i = sext i16 %5 to i32
  %fLength.i.i = getelementptr inbounds i8, ptr %r, i64 12
  %6 = load i32, ptr %fLength.i.i, align 4
  %cond.i.i = select i1 %cmp.i.i.i, i32 %6, i32 %shr.i.i.i
  invoke void @u_UCharsToChars_75(ptr noundef %retval.0.i.i, ptr noundef nonnull %ch.i, i32 noundef %cond.i.i)
          to label %_ZNK7DataMap4utoiERKN6icu_7513UnicodeStringE.exit unwind label %lpad

_ZNK7DataMap4utoiERKN6icu_7513UnicodeStringE.exit: ; preds = %_ZNK6icu_7513UnicodeString9getBufferEv.exit.i
  %idxprom.i = sext i32 %cond.i.i to i64
  %arrayidx.i = getelementptr inbounds [256 x i8], ptr %ch.i, i64 0, i64 %idxprom.i
  store i8 0, ptr %arrayidx.i, align 1
  %call5.i = call noundef i32 @atoi(ptr nocapture noundef nonnull %ch.i) #16
  call void @llvm.lifetime.end.p0(i64 256, ptr nonnull %ch.i)
  br label %cleanup

lpad:                                             ; preds = %_ZNK6icu_7513UnicodeString9getBufferEv.exit.i
  %7 = landingpad { ptr, i32 }
          cleanup
  call void @_ZN6icu_7513UnicodeStringD1Ev(ptr noundef nonnull align 8 dereferenceable(64) %r) #15
  resume { ptr, i32 } %7

cleanup:                                          ; preds = %_ZNK7DataMap4utoiERKN6icu_7513UnicodeStringE.exit, %entry
  %retval.0 = phi i32 [ %call5.i, %_ZNK7DataMap4utoiERKN6icu_7513UnicodeStringE.exit ], [ 0, %entry ]
  call void @_ZN6icu_7513UnicodeStringD1Ev(ptr noundef nonnull align 8 dereferenceable(64) %r) #15
  ret i32 %retval.0
}